; Function Attrs: nounwind uwtable
define ptr @l_Lake_MonadLog_stderr___rarg___boxed(ptr noundef %0, ptr noundef %1, ptr noundef %2, ptr noundef %3) #1 {
  %5 = ptrtoint ptr %1 to i64
  %6 = and i64 %5, 1
  %.not = icmp eq i64 %6, 0
  br i1 %.not, label %7, label %lean_dec.exit8

7:                                                ; preds = %4
  %8 = load i32, ptr %1, align 4, !tbaa !4
  %9 = icmp sgt i32 %8, 1
  br i1 %9, label %10, label %12, !prof !9

10:                                               ; preds = %7
  %11 = add nsw i32 %8, -1
  store i32 %11, ptr %1, align 4, !tbaa !4
  br label %lean_dec.exit8

12:                                               ; preds = %7
  %.not.i = icmp eq i32 %8, 0
  br i1 %.not.i, label %lean_dec.exit8, label %13

13:                                               ; preds = %12
  tail call void @lean_dec_ref_cold(ptr noundef nonnull %1) #9
  br label %lean_dec.exit8

lean_dec.exit8:                                   ; preds = %13, %12, %10, %4
  %14 = ptrtoint ptr %2 to i64
  %15 = and i64 %14, 1
  %.not11 = icmp eq i64 %15, 0
  br i1 %.not11, label %16, label %lean_dec.exit

16:                                               ; preds = %lean_dec.exit8
  %17 = load i32, ptr %2, align 4, !tbaa !4
  %18 = icmp sgt i32 %17, 1
  br i1 %18, label %19, label %21, !prof !9

19:                                               ; preds = %16
  %20 = add nsw i32 %17, -1
  store i32 %20, ptr %2, align 4, !tbaa !4
  br label %lean_dec.exit

21:                                               ; preds = %16
  %.not.i9 = icmp eq i32 %17, 0
  br i1 %.not.i9, label %lean_dec.exit, label %22

22:                                               ; preds = %21
  tail call void @lean_dec_ref_cold(ptr noundef nonnull %2) #9
  br label %lean_dec.exit

lean_dec.exit:                                    ; preds = %22, %21, %19, %lean_dec.exit8
  tail call void @lean_inc_heartbeat() #9
  %23 = tail call noalias ptr @mi_malloc_small(i64 noundef 56) #9
  %24 = icmp eq ptr %23, null
  br i1 %24, label %25, label %l_Lake_MonadLog_stderr___rarg.exit

25:                                               ; preds = %lean_dec.exit
  tail call void @lean_internal_panic_out_of_memory() #10
  unreachable

l_Lake_MonadLog_stderr___rarg.exit:               ; preds = %lean_dec.exit
  %26 = and i64 %14, 510
  %27 = or disjoint i64 %26, 1
  %28 = inttoptr i64 %27 to ptr
  %29 = and i64 %5, 510
  %30 = or disjoint i64 %29, 1
  %31 = inttoptr i64 %30 to ptr
  %32 = getelementptr inbounds nuw i8, ptr %23, i64 4
  store i32 1, ptr %23, align 4, !tbaa !4
  store i32 -184549320, ptr %32, align 4
  %33 = getelementptr inbounds nuw i8, ptr %23, i64 8
  store ptr @l_Lake_OutStream_logEntry___boxed, ptr %33, align 8, !tbaa !10
  %34 = getelementptr inbounds nuw i8, ptr %23, i64 16
  store i16 5, ptr %34, align 8, !tbaa !12
  %35 = getelementptr inbounds nuw i8, ptr %23, i64 18
  store i16 4, ptr %35, align 2, !tbaa !12
  %36 = getelementptr inbounds nuw i8, ptr %23, i64 24
  store ptr inttoptr (i64 3 to ptr), ptr %36, align 8, !tbaa !10
  %37 = getelementptr inbounds nuw i8, ptr %23, i64 32
  store ptr %3, ptr %37, align 8, !tbaa !10
  %38 = getelementptr inbounds nuw i8, ptr %23, i64 40
  store ptr %31, ptr %38, align 8, !tbaa !10
  %39 = getelementptr inbounds nuw i8, ptr %23, i64 48
  store ptr %28, ptr %39, align 8, !tbaa !10
  %40 = tail call ptr @lean_apply_2(ptr noundef %0, ptr noundef nonnull inttoptr (i64 1 to ptr), ptr noundef nonnull %23) #9
  ret ptr %40
}